(lp0
(icw2
Room
p1
(dp2
S'status'
p3
S'offline'
p4
sS'users'
p5
(lp6
sS'currentQuestion'
p7
I0
sS'results'
p8
(lp9
sS'roomCode'
p10
VanotherTotallyNewRoom
p11
sS'questions'
p12
(lp13
(icw2
Question
p14
(dp15
S'responders'
p16
(lp17
sS'questionText'
p18
VWho is the current queen of the UK?
p19
sS'answers'
p20
(lp21
S'Liz'
p22
aS'Bob Marley'
p23
aS'Elton John'
p24
asS'correctAnswer'
p25
I2
sbasba.