(lp0
(icw2
Room
p1
(dp2
S'status'
p3
S'results'
p4
sS'users'
p5
(lp6
(icw2
User
p7
(dp8
S'score'
p9
I0
sS'name'
p10
VRachel
p11
sba(icw2
User
p12
(dp13
g9
I0
sg10
VDavid
p14
sbasS'currentQuestion'
p15
I9
sg4
(lp16
g11
ag14
asS'roomCode'
p17
S'questionRoom'
p18
sS'questions'
p19
(lp20
(icw2
Question
p21
(dp22
S'responders'
p23
(lp24
VDavid
p25
aVRachel
p26
asS'questionText'
p27
S'What one does NOT equal 20?'
p28
sS'answers'
p29
(lp30
S'(2 plus zero) times ten'
p31
aS'(three times five) plus five'
p32
aV20-20+5
p33
asS'correctAnswer'
p34
I2
sba(icw2
Question
p35
(dp36
g23
(lp37
VRachel
p38
aVDavid
p39
asg27
S'I say Rey, you say'
p40
sg29
(lp41
S'quaza'
p42
aS'kachu'
p43
aS'plup'
p44
aS'cineroar'
p45
aS'vesaur'
p46
asg34
I0
sba(icw2
Question
p47
(dp48
g23
(lp49
VDavid
p50
aVRachel
p51
asg27
S"Which isn't a synonym for hot dog?"
p52
sg29
(lp53
S'clavier'
p54
aS'frankfurter'
p55
aS'weenie'
p56
asg34
I0
sba(icw2
Question
p57
(dp58
g23
(lp59
VDavid
p60
aVRachel
p61
asg27
S"Which isn't a musical instrument"
p62
sg29
(lp63
S'Quire'
p64
aS'Flute'
p65
asg34
I0
sba(icw2
Question
p66
(dp67
g23
(lp68
VRachel
p69
aVDavid
p70
asg27
S'Vegan'
p71
sg29
(lp72
S'Wine'
p73
aS'Worcestershire sauce'
p74
aS'Eggs'
p75
aS'Houmous'
p76
asg34
I3
sba(icw2
Question
p77
(dp78
g23
(lp79
VDavid
p80
aVRachel
p81
asg27
VWho is the current queen of the UK?
p82
sg29
(lp83
S'Liz'
p84
aS'Elton John'
p85
asg34
I1
sba(icw2
Question
p86
(dp87
g23
(lp88
VDavid
p89
aVRachel
p90
asg34
I0
sg29
(lp91
S'Only one answer!'
p92
asg27
VMy new question
p93
sba(icw2
Question
p94
(dp95
g23
(lp96
VDavid
p97
aVRachel
p98
asg27
VA question
p99
sg29
(lp100
S'answer 0'
p101
aS'answer 1'
p102
aS'answer 2'
p103
asg34
I0
sba(icw2
Question
p104
(dp105
g23
(lp106
VDavid
p107
aVRachel
p108
asg27
VAnother question
p109
sg29
(lp110
S'answer 0'
p111
aS'answer 1'
p112
aS'answer 2'
p113
asg34
I1
sba(icw2
Question
p114
(dp115
g23
(lp116
VDavid
p117
aVRachel
p118
asg27
VMy question
p119
sg29
(lp120
S'q'
p121
asg34
I-1
sbasba(icw2
Room
p122
(dp123
g3
S'offline'
p124
sg5
(lp125
sg15
I0
sg4
(lp126
sg17
Vchicken
p127
sg19
(lp128
(icw2
Question
p129
(dp130
g23
(lp131
sg27
VWho is the current queen of the UK?
p132
sg29
(lp133
S'Liz'
p134
aS'Bob Marley'
p135
aS'Elton John'
p136
asg34
I2
sbasba(icw2
Room
p137
(dp138
g3
S'results'
p139
sg5
(lp140
sg15
I0
sg4
(lp141
sg17
Vchocolate
p142
sg19
(lp143
(icw2
Question
p144
(dp145
g23
(lp146
sg34
I2
sg29
(lp147
S'Liz'
p148
aS'Bob Marley'
p149
aS'Elton John'
p150
asg27
VWho is the current queen of the UK?
p151
sbasba(icw2
Room
p152
(dp153
g3
S'offline'
p154
sg5
(lp155
sg15
I0
sg4
(lp156
sg17
Vpineapple
p157
sg19
(lp158
(icw2
Question
p159
(dp160
g23
(lp161
sg34
I2
sg29
(lp162
S'answer 0'
p163
aS'answer 1'
p164
aS'answer 2'
p165
asg27
VWho is the current queen of the UK?
p166
sbasba(icw2
Room
p167
(dp168
g3
g154
sg5
(lp169
sg15
I0
sg4
(lp170
sg17
VrachelsQuiz
p171
sg19
(lp172
(icw2
Question
p173
(dp174
g23
(lp175
sg34
I1
sg29
(lp176
S'Chicken'
p177
aS'Egg'
p178
aS"Don't know"
p179
aS'Cow'
p180
aVDog
p181
asg27
VWho came first, the chicken or the egg?
p182
sba(icw2
Question
p183
(dp184
g23
(lp185
sg34
I3
sg29
(lp186
S'Nothing'
p187
aS'Lemons'
p188
aS'Cola'
p189
aS'Bubblegum'
p190
aS'Mint'
p191
asg27
VWhat does Irn Bru taste like?
p192
sba(icw2
Question
p193
(dp194
g23
(lp195
sg34
I2
sg29
(lp196
S'God'
p197
aS'Science'
p198
aS'Food'
p199
aS'Sleep'
p200
aS'Fitness'
p201
aS'Happiness'
p202
asg27
VWhat is the meaning of life?
p203
sbasba.