(lp0
(icw2
Room
p1
(dp2
S'status'
p3
S'offline'
p4
sS'users'
p5
(lp6
sS'currentQuestion'
p7
I0
sS'results'
p8
(lp9
sS'roomCode'
p10
S'questionRoom'
p11
sS'questions'
p12
(lp13
(icw2
Question
p14
(dp15
S'responders'
p16
(lp17
sS'correctAnswer'
p18
I0
sS'answers'
p19
(lp20
S'(2 plus zero) times ten'
p21
aS'(three times five) plus five'
p22
asS'questionText'
p23
S'What one does NOT equal 20?'
p24
sba(icw2
Question
p25
(dp26
g16
(lp27
sg18
I0
sg19
(lp28
S'quaza'
p29
aS'kachu'
p30
aS'plup'
p31
aS'cineroar'
p32
aS'vesaur'
p33
asg23
S'I say Rey, you say'
p34
sba(icw2
Question
p35
(dp36
g16
(lp37
sg18
I0
sg19
(lp38
S'clavier'
p39
aS'frankfurter'
p40
aS'weenie'
p41
asg23
S"Which isn't a synonym for hot dog?"
p42
sba(icw2
Question
p43
(dp44
g16
(lp45
sg18
I0
sg19
(lp46
S'Quire'
p47
aS'Flute'
p48
asg23
S"Which isn't a musical instrument"
p49
sba(icw2
Question
p50
(dp51
g16
(lp52
sg18
I3
sg19
(lp53
S'Wine'
p54
aS'Worcestershire sauce'
p55
aS'Eggs'
p56
aS'Houmous'
p57
asg23
S'Vegan'
p58
sba(icw2
Question
p59
(dp60
g16
(lp61
sg18
I2
sg19
(lp62
S'Liz'
p63
aS'Bob Marley'
p64
aS'Elton John'
p65
asg23
VWho is the current queen of the UK?
p66
sba(icw2
Question
p67
(dp68
g16
(lp69
sg23
VMy new question
p70
sg19
(lp71
S'Only one answer!'
p72
asg18
I0
sba(icw2
Question
p73
(dp74
g16
(lp75
sg18
I0
sg19
(lp76
S'answer 0'
p77
aS'answer 1'
p78
aS'answer 2'
p79
asg23
VA question
p80
sba(icw2
Question
p81
(dp82
g16
(lp83
sg18
I1
sg19
(lp84
S'answer 0'
p85
aS'answer 1'
p86
aS'answer 2'
p87
asg23
VAnother question
p88
sba(icw2
Question
p89
(dp90
g16
(lp91
sg18
I-1
sg19
(lp92
S'q'
p93
asg23
VMy question
p94
sbasba(icw2
Room
p95
(dp96
g3
S'offline'
p97
sg5
(lp98
sg7
I0
sg8
(lp99
sg10
Vchicken
p100
sg12
(lp101
(icw2
Question
p102
(dp103
g16
(lp104
sg18
I2
sg19
(lp105
S'Liz'
p106
aS'Bob Marley'
p107
aS'Elton John'
p108
asg23
VWho is the current queen of the UK?
p109
sbasba(icw2
Room
p110
(dp111
g3
S'running'
p112
sg5
(lp113
sg7
I0
sg8
(lp114
sg10
Vchocolate
p115
sg12
(lp116
(icw2
Question
p117
(dp118
g16
(lp119
sg23
VWho is the current queen of the UK?
p120
sg19
(lp121
S'Liz'
p122
aS'Bob Marley'
p123
aS'Elton John'
p124
asg18
I2
sbasba.