(lp0
(icw2
Room
p1
(dp2
S'status'
p3
S'offline'
p4
sS'users'
p5
(lp6
sS'currentQuestion'
p7
I0
sS'results'
p8
(lp9
sS'roomCode'
p10
S'questionRoom'
p11
sS'questions'
p12
(lp13
(icw2
Question
p14
(dp15
S'responders'
p16
(lp17
sS'correctAnswer'
p18
I0
sS'answers'
p19
(lp20
S'(2 plus zero) times ten'
p21
aS'(three times five) plus five'
p22
asS'questionText'
p23
S'What one does NOT equal 20?'
p24
sba(icw2
Question
p25
(dp26
g16
(lp27
sg18
I0
sg19
(lp28
S'quaza'
p29
aS'kachu'
p30
aS'plup'
p31
aS'cineroar'
p32
aS'vesaur'
p33
asg23
S'I say Rey, you say'
p34
sba(icw2
Question
p35
(dp36
g16
(lp37
sg18
I0
sg19
(lp38
S'clavier'
p39
aS'frankfurter'
p40
aS'weenie'
p41
asg23
S"Which isn't a synonym for hot dog?"
p42
sba(icw2
Question
p43
(dp44
g16
(lp45
sg18
I0
sg19
(lp46
S'Quire'
p47
aS'Flute'
p48
asg23
S"Which isn't a musical instrument"
p49
sba(icw2
Question
p50
(dp51
g16
(lp52
sg18
I3
sg19
(lp53
S'Wine'
p54
aS'Worcestershire sauce'
p55
aS'Eggs'
p56
aS'Houmous'
p57
asg23
S'Vegan'
p58
sba(icw2
Question
p59
(dp60
g16
(lp61
sg18
I1
sg19
(lp62
S'Liz'
p63
aS'Elton John'
p64
asg23
VWho is the current queen of the UK?
p65
sba(icw2
Question
p66
(dp67
g16
(lp68
sg23
VMy new question
p69
sg19
(lp70
S'Only one answer!'
p71
asg18
I0
sba(icw2
Question
p72
(dp73
g16
(lp74
sg18
I0
sg19
(lp75
S'answer 0'
p76
aS'answer 1'
p77
aS'answer 2'
p78
asg23
VA question
p79
sba(icw2
Question
p80
(dp81
g16
(lp82
sg18
I1
sg19
(lp83
S'answer 0'
p84
aS'answer 1'
p85
aS'answer 2'
p86
asg23
VAnother question
p87
sba(icw2
Question
p88
(dp89
g16
(lp90
sg18
I-1
sg19
(lp91
S'q'
p92
asg23
VMy question
p93
sbasba(icw2
Room
p94
(dp95
g3
S'offline'
p96
sg5
(lp97
sg7
I0
sg8
(lp98
sg10
Vchicken
p99
sg12
(lp100
(icw2
Question
p101
(dp102
g16
(lp103
sg18
I2
sg19
(lp104
S'Liz'
p105
aS'Bob Marley'
p106
aS'Elton John'
p107
asg23
VWho is the current queen of the UK?
p108
sbasba(icw2
Room
p109
(dp110
g3
S'results'
p111
sg5
(lp112
sg7
I0
sg8
(lp113
sg10
Vchocolate
p114
sg12
(lp115
(icw2
Question
p116
(dp117
g16
(lp118
sg23
VWho is the current queen of the UK?
p119
sg19
(lp120
S'Liz'
p121
aS'Bob Marley'
p122
aS'Elton John'
p123
asg18
I2
sbasba(icw2
Room
p124
(dp125
g3
g4
sg5
(lp126
sg7
I0
sg8
(lp127
sg10
Vpineapple
p128
sg12
(lp129
(icw2
Question
p130
(dp131
g16
(lp132
sg23
VWho is the current queen of the UK?
p133
sg19
(lp134
S'answer 0'
p135
aS'answer 1'
p136
aS'answer 2'
p137
asg18
I2
sbasba(icw2
Room
p138
(dp139
g3
g4
sg5
(lp140
sg7
I0
sg8
(lp141
sg10
VrachelsQuiz
p142
sg12
(lp143
(icw2
Question
p144
(dp145
g16
(lp146
sg23
VWho came first, the chicken or the egg?
p147
sg19
(lp148
S'Chicken'
p149
aS'Egg'
p150
aS"Don't know"
p151
aS'Cow'
p152
aVDog
p153
asg18
I1
sba(icw2
Question
p154
(dp155
g16
(lp156
sg23
VWhat does Irn Bru taste like?
p157
sg19
(lp158
S'Nothing'
p159
aS'Lemons'
p160
aS'Cola'
p161
aS'Bubblegum'
p162
aS'Mint'
p163
asg18
I3
sba(icw2
Question
p164
(dp165
g16
(lp166
sg23
VWhat is the meaning of life?
p167
sg19
(lp168
S'God'
p169
aS'Science'
p170
aS'Food'
p171
aS'Sleep'
p172
aS'Fitness'
p173
aS'Happiness'
p174
asg18
I2
sbasba.