(lp0
(icw2
Room
p1
(dp2
S'status'
p3
S'offline'
p4
sS'users'
p5
(lp6
sS'currentQuestion'
p7
I0
sS'results'
p8
(lp9
sS'roomCode'
p10
S'questionRoom'
p11
sS'questions'
p12
(lp13
(icw2
Question
p14
(dp15
S'responders'
p16
(lp17
sS'questionText'
p18
S'What one does NOT equal 20?'
p19
sS'answers'
p20
(lp21
S'(2 plus zero) times ten'
p22
aS'(three times five) plus five'
p23
asS'correctAnswer'
p24
I0
sba(icw2
Question
p25
(dp26
g16
(lp27
sg18
S'I say Rey, you say'
p28
sg20
(lp29
S'quaza'
p30
aS'kachu'
p31
aS'plup'
p32
aS'cineroar'
p33
aS'vesaur'
p34
asg24
I0
sba(icw2
Question
p35
(dp36
g16
(lp37
sg18
S"Which isn't a synonym for hot dog?"
p38
sg20
(lp39
S'clavier'
p40
aS'frankfurter'
p41
aS'weenie'
p42
asg24
I0
sba(icw2
Question
p43
(dp44
g16
(lp45
sg18
S"Which isn't a musical instrument"
p46
sg20
(lp47
S'Quire'
p48
aS'Flute'
p49
asg24
I0
sba(icw2
Question
p50
(dp51
g16
(lp52
sg18
S'Vegan'
p53
sg20
(lp54
S'Wine'
p55
aS'Worcestershire sauce'
p56
aS'Eggs'
p57
aS'Houmous'
p58
asg24
I3
sba(icw2
Question
p59
(dp60
g16
(lp61
sg18
VWho is the current queen of the UK?
p62
sg20
(lp63
S'Liz'
p64
aS'Elton John'
p65
asg24
I1
sba(icw2
Question
p66
(dp67
g16
(lp68
sg24
I0
sg20
(lp69
S'Only one answer!'
p70
asg18
VMy new question
p71
sba(icw2
Question
p72
(dp73
g16
(lp74
sg18
VA question
p75
sg20
(lp76
S'answer 0'
p77
aS'answer 1'
p78
aS'answer 2'
p79
asg24
I0
sba(icw2
Question
p80
(dp81
g16
(lp82
sg18
VAnother question
p83
sg20
(lp84
S'answer 0'
p85
aS'answer 1'
p86
aS'answer 2'
p87
asg24
I1
sba(icw2
Question
p88
(dp89
g16
(lp90
sg18
VMy question
p91
sg20
(lp92
S'q'
p93
asg24
I-1
sbasba(icw2
Room
p94
(dp95
g3
S'offline'
p96
sg5
(lp97
sg7
I0
sg8
(lp98
sg10
Vchicken
p99
sg12
(lp100
(icw2
Question
p101
(dp102
g16
(lp103
sg18
VWho is the current queen of the UK?
p104
sg20
(lp105
S'Liz'
p106
aS'Bob Marley'
p107
aS'Elton John'
p108
asg24
I2
sbasba(icw2
Room
p109
(dp110
g3
S'results'
p111
sg5
(lp112
sg7
I0
sg8
(lp113
sg10
Vchocolate
p114
sg12
(lp115
(icw2
Question
p116
(dp117
g16
(lp118
sg24
I2
sg20
(lp119
S'Liz'
p120
aS'Bob Marley'
p121
aS'Elton John'
p122
asg18
VWho is the current queen of the UK?
p123
sbasba.